target datalayout = "e-m:e-p270:32:32-p271:32:32-p272:64:64-i64:64-i128:128-f80:128-n8:16:32:64-S128"
target triple = "x86_64-pc-linux-gnu"

%"struct.vcpkg::Hash::Hasher" = type { ptr }
%"struct.vcpkg::Hash::(anonymous namespace)::ShaHasher.26" = type { %"struct.vcpkg::Hash::Hasher", %"struct.vcpkg::Hash::(anonymous namespace)::Sha512Algorithm", %"struct.std::array.27", i64, %"struct.vcpkg::UInt128" }
%"struct.vcpkg::Hash::(anonymous namespace)::Sha512Algorithm" = type { [8 x i64] }
%"struct.std::array.27" = type { [128 x i8] }
%"struct.vcpkg::UInt128" = type { i64, i64 }

; Function Attrs: mustprogress nounwind uwtable
define linkonce_odr dso_local noundef ptr @_ZNSt11__copy_moveILb0ELb1ESt26random_access_iterator_tagE8__copy_mIhEEPT_PKS3_S6_S4_(ptr noundef %0, ptr noundef %1, ptr noundef %2) #0 comdat align 2 {
  %4 = alloca ptr, align 8
  %5 = alloca ptr, align 8
  %6 = alloca ptr, align 8
  %7 = alloca i64, align 8
  store ptr %0, ptr %4, align 8
  store ptr %1, ptr %5, align 8
  store ptr %2, ptr %6, align 8
  %8 = load ptr, ptr %5, align 8
  %9 = load ptr, ptr %4, align 8
  %10 = ptrtoint ptr %8 to i64
  %11 = ptrtoint ptr %9 to i64
  %12 = sub i64 %10, %11
  store i64 %12, ptr %7, align 8
  %13 = load i64, ptr %7, align 8
  %14 = icmp ne i64 %13, 0
  br i1 %14, label %15, label %20

15:                                               ; preds = %3
  %16 = load ptr, ptr %6, align 8
  %17 = load ptr, ptr %4, align 8
  %18 = load i64, ptr %7, align 8
  %19 = mul i64 1, %18
  call void @llvm.memmove.p0.p0.i64(ptr align 1 %16, ptr align 1 %17, i64 %19, i1 false)
  br label %20

20:                                               ; preds = %15, %3
  %21 = load ptr, ptr %6, align 8
  %22 = load i64, ptr %7, align 8
  %23 = getelementptr inbounds i8, ptr %21, i64 %22
  ret ptr %23
}

; Function Attrs: mustprogress uwtable
define linkonce_odr dso_local noundef ptr @_ZSt14__copy_move_a2ILb0EPKhPhET1_T0_S4_S3_(ptr noundef %0, ptr noundef %1, ptr noundef %2) #4 comdat {
  %4 = alloca ptr, align 8
  %5 = alloca ptr, align 8
  %6 = alloca ptr, align 8
  store ptr %0, ptr %4, align 8
  store ptr %1, ptr %5, align 8
  store ptr %2, ptr %6, align 8
  %7 = load ptr, ptr %4, align 8
  %8 = load ptr, ptr %5, align 8
  %9 = load ptr, ptr %6, align 8
  %10 = call noundef ptr @_ZNSt11__copy_moveILb0ELb1ESt26random_access_iterator_tagE8__copy_mIhEEPT_PKS3_S6_S4_(ptr noundef %7, ptr noundef %8, ptr noundef %9)
  ret ptr %10
}

; Function Attrs: mustprogress nounwind uwtable
define linkonce_odr dso_local noundef ptr @_ZNSt14__array_traitsIhLm128EE6_S_ptrERA128_Kh(ptr noundef nonnull align 1 dereferenceable(128) %0) #0 comdat align 2 {
  %2 = alloca ptr, align 8
  store ptr %0, ptr %2, align 8
  %3 = load ptr, ptr %2, align 8
  %4 = getelementptr inbounds [128 x i8], ptr %3, i64 0, i64 0
  ret ptr %4
}

; Function Attrs: mustprogress nounwind uwtable
define linkonce_odr dso_local noundef ptr @_ZSt12__niter_wrapIPhET_RKS1_S1_(ptr noundef nonnull align 8 dereferenceable(8) %0, ptr noundef %1) #0 comdat {
  %3 = alloca ptr, align 8
  %4 = alloca ptr, align 8
  store ptr %0, ptr %3, align 8
  store ptr %1, ptr %4, align 8
  %5 = load ptr, ptr %4, align 8
  ret ptr %5
}

; Function Attrs: mustprogress uwtable
define linkonce_odr dso_local noundef ptr @_ZSt14__copy_move_a1ILb0EPKhPhET1_T0_S4_S3_(ptr noundef %0, ptr noundef %1, ptr noundef %2) #4 comdat {
  %4 = alloca ptr, align 8
  %5 = alloca ptr, align 8
  %6 = alloca ptr, align 8
  store ptr %0, ptr %4, align 8
  store ptr %1, ptr %5, align 8
  store ptr %2, ptr %6, align 8
  %7 = load ptr, ptr %4, align 8
  %8 = load ptr, ptr %5, align 8
  %9 = load ptr, ptr %6, align 8
  %10 = call noundef ptr @_ZSt14__copy_move_a2ILb0EPKhPhET1_T0_S4_S3_(ptr noundef %7, ptr noundef %8, ptr noundef %9)
  ret ptr %10
}

; Function Attrs: mustprogress nounwind uwtable
define linkonce_odr dso_local noundef ptr @_ZSt12__niter_baseIPhET_S1_(ptr noundef %0) #0 comdat {
  %2 = alloca ptr, align 8
  store ptr %0, ptr %2, align 8
  %3 = load ptr, ptr %2, align 8
  ret ptr %3
}

; Function Attrs: mustprogress nounwind uwtable
define linkonce_odr dso_local noundef ptr @_ZSt12__niter_baseIPKhET_S2_(ptr noundef %0) #0 comdat {
  %2 = alloca ptr, align 8
  store ptr %0, ptr %2, align 8
  %3 = load ptr, ptr %2, align 8
  ret ptr %3
}

; Function Attrs: mustprogress nounwind willreturn memory(none) uwtable
define linkonce_odr dso_local noundef ptr @_ZNSt5arrayIhLm128EE4dataEv(ptr noundef nonnull align 1 dereferenceable(128) %0) #12 comdat align 2 {
  %2 = alloca ptr, align 8
  store ptr %0, ptr %2, align 8
  %3 = load ptr, ptr %2, align 8
  %4 = getelementptr inbounds %"struct.std::array.27", ptr %3, i32 0, i32 0
  %5 = call noundef ptr @_ZNSt14__array_traitsIhLm128EE6_S_ptrERA128_Kh(ptr noundef nonnull align 1 dereferenceable(128) %4) #16
  ret ptr %5
}

; Function Attrs: mustprogress uwtable
define linkonce_odr dso_local noundef ptr @_ZSt13__copy_move_aILb0EPKhPhET1_T0_S4_S3_(ptr noundef %0, ptr noundef %1, ptr noundef %2) #4 comdat {
  %4 = alloca ptr, align 8
  %5 = alloca ptr, align 8
  %6 = alloca ptr, align 8
  store ptr %0, ptr %4, align 8
  store ptr %1, ptr %5, align 8
  store ptr %2, ptr %6, align 8
  %7 = load ptr, ptr %4, align 8
  %8 = call noundef ptr @_ZSt12__niter_baseIPKhET_S2_(ptr noundef %7) #16
  %9 = load ptr, ptr %5, align 8
  %10 = call noundef ptr @_ZSt12__niter_baseIPKhET_S2_(ptr noundef %9) #16
  %11 = load ptr, ptr %6, align 8
  %12 = call noundef ptr @_ZSt12__niter_baseIPhET_S1_(ptr noundef %11) #16
  %13 = call noundef ptr @_ZSt14__copy_move_a1ILb0EPKhPhET1_T0_S4_S3_(ptr noundef %8, ptr noundef %10, ptr noundef %12)
  %14 = call noundef ptr @_ZSt12__niter_wrapIPhET_RKS1_S1_(ptr noundef nonnull align 8 dereferenceable(8) %6, ptr noundef %13)
  ret ptr %14
}

; Function Attrs: mustprogress nounwind uwtable
define linkonce_odr dso_local noundef ptr @_ZSt12__miter_baseIPKhET_S2_(ptr noundef %0) #0 comdat {
  %2 = alloca ptr, align 8
  store ptr %0, ptr %2, align 8
  %3 = load ptr, ptr %2, align 8
  ret ptr %3
}

; Function Attrs: mustprogress nounwind willreturn memory(none) uwtable
define linkonce_odr dso_local noundef ptr @_ZNSt5arrayIhLm128EE5beginEv(ptr noundef nonnull align 1 dereferenceable(128) %0) #12 comdat align 2 {
  %2 = alloca ptr, align 8
  store ptr %0, ptr %2, align 8
  %3 = load ptr, ptr %2, align 8
  %4 = call noundef ptr @_ZNSt5arrayIhLm128EE4dataEv(ptr noundef nonnull align 1 dereferenceable(128) %3) #22
  ret ptr %4
}

; Function Attrs: noreturn nounwind uwtable
define linkonce_odr hidden void @__clang_call_terminate(ptr noundef %0) #3 comdat {
  %2 = call ptr @__cxa_begin_catch(ptr %0) #16
  call void @_ZSt9terminatev() #17
  unreachable
}

; Function Attrs: mustprogress uwtable
define linkonce_odr dso_local noundef ptr @_ZSt4copyIPKhPhET0_T_S4_S3_(ptr noundef %0, ptr noundef %1, ptr noundef %2) #4 comdat {
  %4 = alloca ptr, align 8
  %5 = alloca ptr, align 8
  %6 = alloca ptr, align 8
  store ptr %0, ptr %4, align 8
  store ptr %1, ptr %5, align 8
  store ptr %2, ptr %6, align 8
  %7 = load ptr, ptr %4, align 8
  %8 = call noundef ptr @_ZSt12__miter_baseIPKhET_S2_(ptr noundef %7)
  %9 = load ptr, ptr %5, align 8
  %10 = call noundef ptr @_ZSt12__miter_baseIPKhET_S2_(ptr noundef %9)
  %11 = load ptr, ptr %6, align 8
  %12 = call noundef ptr @_ZSt13__copy_move_aILb0EPKhPhET1_T0_S4_S3_(ptr noundef %8, ptr noundef %10, ptr noundef %11)
  ret ptr %12
}

; Function Attrs: mustprogress nounwind uwtable
define internal noundef ptr @_ZN5vcpkg4Hash12_GLOBAL__N_19ShaHasherINS1_15Sha512AlgorithmEE11chunk_beginEv(ptr noundef nonnull align 8 dereferenceable(224) %0) #0 align 2 {
  %2 = alloca ptr, align 8
  store ptr %0, ptr %2, align 8
  %3 = load ptr, ptr %2, align 8
  %4 = getelementptr inbounds %"struct.vcpkg::Hash::(anonymous namespace)::ShaHasher.26", ptr %3, i32 0, i32 2
  %5 = call noundef ptr @_ZNSt5arrayIhLm128EE5beginEv(ptr noundef nonnull align 1 dereferenceable(128) %4) #22
  %6 = getelementptr inbounds %"struct.vcpkg::Hash::(anonymous namespace)::ShaHasher.26", ptr %3, i32 0, i32 3
  %7 = load i64, ptr %6, align 8
  %8 = getelementptr inbounds i8, ptr %5, i64 %7
  ret ptr %8
}

; Function Attrs: mustprogress nounwind uwtable
define internal noundef ptr @_ZN5vcpkg4Hash12_GLOBAL__N_19ShaHasherINS1_15Sha512AlgorithmEE18add_to_unprocessedEPKvS6_(ptr noundef nonnull align 8 dereferenceable(224) %0, ptr noundef %1, ptr noundef %2) #0 align 2 personality ptr @__gxx_personality_v0 {
  %4 = alloca ptr, align 8
  %5 = alloca ptr, align 8
  %6 = alloca ptr, align 8
  %7 = alloca ptr, align 8
  %8 = alloca ptr, align 8
  %9 = alloca ptr, align 8
  %10 = alloca i64, align 8
  %11 = alloca i64, align 8
  store ptr %0, ptr %5, align 8
  store ptr %1, ptr %6, align 8
  store ptr %2, ptr %7, align 8
  %12 = load ptr, ptr %5, align 8
  %13 = load ptr, ptr %6, align 8
  store ptr %13, ptr %8, align 8
  %14 = load ptr, ptr %7, align 8
  store ptr %14, ptr %9, align 8
  %15 = getelementptr inbounds %"struct.vcpkg::Hash::(anonymous namespace)::ShaHasher.26", ptr %12, i32 0, i32 3
  %16 = load i64, ptr %15, align 8
  %17 = sub i64 128, %16
  store i64 %17, ptr %10, align 8
  %18 = load ptr, ptr %9, align 8
  %19 = load ptr, ptr %8, align 8
  %20 = ptrtoint ptr %18 to i64
  %21 = ptrtoint ptr %19 to i64
  %22 = sub i64 %20, %21
  store i64 %22, ptr %11, align 8
  %23 = load i64, ptr %11, align 8
  %24 = load i64, ptr %10, align 8
  %25 = icmp uge i64 %23, %24
  br i1 %25, label %26, label %46

26:                                               ; preds = %3
  %27 = load ptr, ptr %8, align 8
  %28 = load ptr, ptr %8, align 8
  %29 = load i64, ptr %10, align 8
  %30 = getelementptr inbounds i8, ptr %28, i64 %29
  %31 = invoke noundef ptr @_ZN5vcpkg4Hash12_GLOBAL__N_19ShaHasherINS1_15Sha512AlgorithmEE11chunk_beginEv(ptr noundef nonnull align 8 dereferenceable(224) %12)
          to label %32 unwind label %63

32:                                               ; preds = %26
  %33 = invoke noundef ptr @_ZSt4copyIPKhPhET0_T_S4_S3_(ptr noundef %27, ptr noundef %30, ptr noundef %31)
          to label %34 unwind label %63

34:                                               ; preds = %32
  %35 = load i64, ptr %10, align 8
  %36 = getelementptr inbounds %"struct.vcpkg::Hash::(anonymous namespace)::ShaHasher.26", ptr %12, i32 0, i32 3
  %37 = load i64, ptr %36, align 8
  %38 = add i64 %37, %35
  store i64 %38, ptr %36, align 8
  %39 = load i64, ptr %10, align 8
  %40 = mul i64 %39, 8
  %41 = getelementptr inbounds %"struct.vcpkg::Hash::(anonymous namespace)::ShaHasher.26", ptr %12, i32 0, i32 4
  %42 = call noundef nonnull align 8 dereferenceable(16) ptr @_ZN5vcpkg7UInt128pLEm(ptr noundef nonnull align 8 dereferenceable(16) %41, i64 noundef %40) #16
  %43 = load ptr, ptr %8, align 8
  %44 = load i64, ptr %10, align 8
  %45 = getelementptr inbounds i8, ptr %43, i64 %44
  store ptr %45, ptr %4, align 8
  br label %61

46:                                               ; preds = %3
  %47 = load ptr, ptr %8, align 8
  %48 = load ptr, ptr %9, align 8
  %49 = invoke noundef ptr @_ZN5vcpkg4Hash12_GLOBAL__N_19ShaHasherINS1_15Sha512AlgorithmEE11chunk_beginEv(ptr noundef nonnull align 8 dereferenceable(224) %12)
          to label %50 unwind label %63

50:                                               ; preds = %46
  %51 = invoke noundef ptr @_ZSt4copyIPKhPhET0_T_S4_S3_(ptr noundef %47, ptr noundef %48, ptr noundef %49)
          to label %52 unwind label %63

52:                                               ; preds = %50
  %53 = load i64, ptr %11, align 8
  %54 = getelementptr inbounds %"struct.vcpkg::Hash::(anonymous namespace)::ShaHasher.26", ptr %12, i32 0, i32 3
  %55 = load i64, ptr %54, align 8
  %56 = add i64 %55, %53
  store i64 %56, ptr %54, align 8
  %57 = load i64, ptr %11, align 8
  %58 = mul i64 %57, 8
  %59 = getelementptr inbounds %"struct.vcpkg::Hash::(anonymous namespace)::ShaHasher.26", ptr %12, i32 0, i32 4
  %60 = call noundef nonnull align 8 dereferenceable(16) ptr @_ZN5vcpkg7UInt128pLEm(ptr noundef nonnull align 8 dereferenceable(16) %59, i64 noundef %58) #16
  store ptr null, ptr %4, align 8
  br label %61

61:                                               ; preds = %52, %34
  %62 = load ptr, ptr %4, align 8
  ret ptr %62

63:                                               ; preds = %50, %46, %32, %26
  %64 = landingpad { ptr, i32 }
          catch ptr null
  %65 = extractvalue { ptr, i32 } %64, 0
  call void @__clang_call_terminate(ptr %65) #17
  unreachable
}

; Function Attrs: mustprogress nounwind uwtable
define internal void @_ZN5vcpkg4Hash12_GLOBAL__N_19ShaHasherINS1_15Sha512AlgorithmEE9add_bytesEPKvS6_(ptr noundef nonnull align 8 dereferenceable(224) %0, ptr noundef %1, ptr noundef %2) unnamed_addr #0 align 2 {
  %4 = alloca ptr, align 8
  %5 = alloca ptr, align 8
  %6 = alloca ptr, align 8
  store ptr %0, ptr %4, align 8
  store ptr %1, ptr %5, align 8
  store ptr %2, ptr %6, align 8
  %7 = load ptr, ptr %4, align 8
  br label %8

8:                                                ; preds = %15, %3
  %9 = load ptr, ptr %5, align 8
  %10 = load ptr, ptr %6, align 8
  %11 = call noundef ptr @_ZN5vcpkg4Hash12_GLOBAL__N_19ShaHasherINS1_15Sha512AlgorithmEE18add_to_unprocessedEPKvS6_(ptr noundef nonnull align 8 dereferenceable(224) %7, ptr noundef %9, ptr noundef %10) #16
  store ptr %11, ptr %5, align 8
  %12 = load ptr, ptr %5, align 8
  %13 = icmp ne ptr %12, null
  br i1 %13, label %15, label %14

14:                                               ; preds = %8
  br label %19

15:                                               ; preds = %8
  %16 = getelementptr inbounds %"struct.vcpkg::Hash::(anonymous namespace)::ShaHasher.26", ptr %7, i32 0, i32 1
  %17 = getelementptr inbounds %"struct.vcpkg::Hash::(anonymous namespace)::ShaHasher.26", ptr %7, i32 0, i32 2
  call void @_ZN5vcpkg4Hash12_GLOBAL__N_115Sha512Algorithm18process_full_chunkERKSt5arrayIhLm128EE(ptr noundef nonnull align 8 dereferenceable(64) %16, ptr noundef nonnull align 1 dereferenceable(128) %17) #16
  %18 = getelementptr inbounds %"struct.vcpkg::Hash::(anonymous namespace)::ShaHasher.26", ptr %7, i32 0, i32 3
  store i64 0, ptr %18, align 8
  br label %8, !llvm.loop !15

19:                                               ; preds = %14
  ret void
}