; Function Attrs: mustprogress nounwind uwtable
define internal void @_ZN5vcpkg4Hash12_GLOBAL__N_19ShaHasherINS1_15Sha512AlgorithmEE9add_bytesEPKvS6_(ptr noundef nonnull align 8 dereferenceable(224) %0, ptr noundef %1, ptr noundef %2) unnamed_addr #0 align 2 personality ptr @__gxx_personality_v0 {
  %4 = getelementptr inbounds i8, ptr %0, i64 200
  %5 = ptrtoint ptr %2 to i64
  %6 = getelementptr inbounds i8, ptr %0, i64 208
  %7 = getelementptr inbounds i8, ptr %0, i64 72
  %8 = getelementptr inbounds i8, ptr %0, i64 8
  %.pre = load i64, ptr %4, align 8
  br label %9

9:                                                ; preds = %27, %3
  %10 = phi i64 [ %.pre, %3 ], [ 0, %27 ]
  %.0 = phi ptr [ %1, %3 ], [ %.0.i, %27 ]
  %11 = sub i64 128, %10
  %12 = ptrtoint ptr %.0 to i64
  %13 = sub i64 %5, %12
  %.not.i = icmp ult i64 %13, %11
  br i1 %.not.i, label %20, label %14

14:                                               ; preds = %9
  %15 = getelementptr inbounds i8, ptr %.0, i64 %11
  %.not.i.i.i.i.i.i = icmp eq i64 %10, 128
  br i1 %.not.i.i.i.i.i.i, label %_ZSt4copyIPKhPhET0_T_S4_S3_.exit.i, label %16

16:                                               ; preds = %14
  %17 = getelementptr inbounds i8, ptr %7, i64 %10
  tail call void @llvm.memmove.p0.p0.i64(ptr nonnull align 1 %17, ptr align 1 %.0, i64 %11, i1 false)
  %.pre.i = load i64, ptr %4, align 8
  br label %_ZSt4copyIPKhPhET0_T_S4_S3_.exit.i

_ZSt4copyIPKhPhET0_T_S4_S3_.exit.i:               ; preds = %16, %14
  %18 = phi i64 [ %.pre.i, %16 ], [ 128, %14 ]
  %19 = add i64 %18, %11
  br label %_ZN5vcpkg4Hash12_GLOBAL__N_19ShaHasherINS1_15Sha512AlgorithmEE18add_to_unprocessedEPKvS6_.exit

20:                                               ; preds = %9
  %.not.i.i.i.i.i20.i = icmp eq ptr %.0, %2
  br i1 %.not.i.i.i.i.i20.i, label %_ZSt4copyIPKhPhET0_T_S4_S3_.exit21.i, label %21

21:                                               ; preds = %20
  %22 = getelementptr inbounds i8, ptr %7, i64 %10
  tail call void @llvm.memmove.p0.p0.i64(ptr nonnull align 1 %22, ptr align 1 %.0, i64 %13, i1 false)
  %.pre22.i = load i64, ptr %4, align 8
  br label %_ZSt4copyIPKhPhET0_T_S4_S3_.exit21.i

_ZSt4copyIPKhPhET0_T_S4_S3_.exit21.i:             ; preds = %21, %20
  %23 = phi i64 [ %.pre22.i, %21 ], [ %10, %20 ]
  %24 = add i64 %23, %13
  br label %_ZN5vcpkg4Hash12_GLOBAL__N_19ShaHasherINS1_15Sha512AlgorithmEE18add_to_unprocessedEPKvS6_.exit

_ZN5vcpkg4Hash12_GLOBAL__N_19ShaHasherINS1_15Sha512AlgorithmEE18add_to_unprocessedEPKvS6_.exit: ; preds = %_ZSt4copyIPKhPhET0_T_S4_S3_.exit.i, %_ZSt4copyIPKhPhET0_T_S4_S3_.exit21.i
  %.sink24.i = phi i64 [ %24, %_ZSt4copyIPKhPhET0_T_S4_S3_.exit21.i ], [ %19, %_ZSt4copyIPKhPhET0_T_S4_S3_.exit.i ]
  %.sink.i = phi i64 [ %13, %_ZSt4copyIPKhPhET0_T_S4_S3_.exit21.i ], [ %11, %_ZSt4copyIPKhPhET0_T_S4_S3_.exit.i ]
  %.0.i = phi ptr [ null, %_ZSt4copyIPKhPhET0_T_S4_S3_.exit21.i ], [ %15, %_ZSt4copyIPKhPhET0_T_S4_S3_.exit.i ]
  store i64 %.sink24.i, ptr %4, align 8
  %25 = shl i64 %.sink.i, 3
  %26 = tail call noundef nonnull align 8 dereferenceable(16) ptr @_ZN5vcpkg7UInt128pLEm(ptr noundef nonnull align 8 dereferenceable(16) %6, i64 noundef %25) #21
  %.not = icmp eq ptr %.0.i, null
  br i1 %.not, label %28, label %27

27:                                               ; preds = %_ZN5vcpkg4Hash12_GLOBAL__N_19ShaHasherINS1_15Sha512AlgorithmEE18add_to_unprocessedEPKvS6_.exit
  tail call fastcc void @_ZN5vcpkg4Hash12_GLOBAL__N_115Sha512Algorithm18process_full_chunkERKSt5arrayIhLm128EE(ptr noundef nonnull align 8 dereferenceable(64) %8, ptr noundef nonnull align 1 dereferenceable(128) %7) #21
  store i64 0, ptr %4, align 8
  br label %9, !llvm.loop !22

28:                                               ; preds = %_ZN5vcpkg4Hash12_GLOBAL__N_19ShaHasherINS1_15Sha512AlgorithmEE18add_to_unprocessedEPKvS6_.exit
  ret void
}